libqmdnsengine.so.0 libqmdnsengine0 #MINVER#
 _ZN10QByteArrayD1Ev@Base 0.1.0
 _ZN10QByteArrayD2Ev@Base 0.1.0
 _ZN11QMdnsEngine10fromPacketERK10QByteArrayRNS_7MessageE@Base 0.1.0
 _ZN11QMdnsEngine11parseRecordERK10QByteArrayRtRNS_6RecordE@Base 0.1.0
 _ZN11QMdnsEngine11writeRecordER10QByteArrayRtRNS_6RecordER4QMapIS0_tE@Base 0.1.0
 _ZN11QMdnsEngine12CachePrivate11qt_metacallEN11QMetaObject4CallEiPPv@Base 0.1.0
 _ZN11QMdnsEngine12CachePrivate11qt_metacastEPKc@Base 0.1.0
 _ZN11QMdnsEngine12CachePrivate16staticMetaObjectE@Base 0.1.0
 _ZN11QMdnsEngine12CachePrivate9onTimeoutEv@Base 0.1.0
 _ZN11QMdnsEngine12CachePrivateC1EPNS_5CacheE@Base 0.1.0
 _ZN11QMdnsEngine12CachePrivateC2EPNS_5CacheE@Base 0.1.0
 _ZN11QMdnsEngine12CachePrivateD0Ev@Base 0.1.0
 _ZN11QMdnsEngine12CachePrivateD1Ev@Base 0.1.0
 _ZN11QMdnsEngine12CachePrivateD2Ev@Base 0.1.0
 _ZN11QMdnsEngine12QueryPrivateC1Ev@Base 0.1.0
 _ZN11QMdnsEngine12QueryPrivateC2Ev@Base 0.1.0
 _ZN11QMdnsEngine13BitmapPrivate4freeEv@Base 0.1.0
 _ZN11QMdnsEngine13BitmapPrivate8fromDataEhPKh@Base 0.1.0
 _ZN11QMdnsEngine13BitmapPrivateC1Ev@Base 0.1.0
 _ZN11QMdnsEngine13BitmapPrivateC2Ev@Base 0.1.0
 _ZN11QMdnsEngine13BitmapPrivateD0Ev@Base 0.1.0
 _ZN11QMdnsEngine13BitmapPrivateD1Ev@Base 0.1.0
 _ZN11QMdnsEngine13BitmapPrivateD2Ev@Base 0.1.0
 _ZN11QMdnsEngine13ProberPrivate11qt_metacallEN11QMetaObject4CallEiPPv@Base 0.1.0
 _ZN11QMdnsEngine13ProberPrivate11qt_metacastEPKc@Base 0.1.0
 _ZN11QMdnsEngine13ProberPrivate12assertRecordEv@Base 0.1.0
 _ZN11QMdnsEngine13ProberPrivate16staticMetaObjectE@Base 0.1.0
 _ZN11QMdnsEngine13ProberPrivate17onMessageReceivedERKNS_7MessageE@Base 0.1.0
 _ZN11QMdnsEngine13ProberPrivate9onTimeoutEv@Base 0.1.0
 _ZN11QMdnsEngine13ProberPrivateC1EPNS_6ProberEPNS_14AbstractServerERKNS_6RecordE@Base 0.1.0
 _ZN11QMdnsEngine13ProberPrivateC2EPNS_6ProberEPNS_14AbstractServerERKNS_6RecordE@Base 0.1.0
 _ZN11QMdnsEngine13ProberPrivateD0Ev@Base 0.1.0
 _ZN11QMdnsEngine13ProberPrivateD1Ev@Base 0.1.0
 _ZN11QMdnsEngine13ProberPrivateD2Ev@Base 0.1.0
 _ZN11QMdnsEngine13RecordPrivateC1Ev@Base 0.1.0
 _ZN11QMdnsEngine13RecordPrivateC2Ev@Base 0.1.0
 _ZN11QMdnsEngine13ServerPrivate10bindSocketER10QUdpSocketRK12QHostAddress@Base 0.1.0
 _ZN11QMdnsEngine13ServerPrivate11onReadyReadEv@Base 0.1.0
 _ZN11QMdnsEngine13ServerPrivate11qt_metacallEN11QMetaObject4CallEiPPv@Base 0.1.0
 _ZN11QMdnsEngine13ServerPrivate11qt_metacastEPKc@Base 0.1.0
 _ZN11QMdnsEngine13ServerPrivate16staticMetaObjectE@Base 0.1.0
 _ZN11QMdnsEngine13ServerPrivate9onTimeoutEv@Base 0.1.0
 _ZN11QMdnsEngine13ServerPrivateC1EPNS_6ServerE@Base 0.1.0
 _ZN11QMdnsEngine13ServerPrivateC2EPNS_6ServerE@Base 0.1.0
 _ZN11QMdnsEngine13ServerPrivateD0Ev@Base 0.1.0
 _ZN11QMdnsEngine13ServerPrivateD1Ev@Base 0.1.0
 _ZN11QMdnsEngine13ServerPrivateD2Ev@Base 0.1.0
 _ZN11QMdnsEngine14AbstractServer11qt_metacallEN11QMetaObject4CallEiPPv@Base 0.1.0
 _ZN11QMdnsEngine14AbstractServer11qt_metacastEPKc@Base 0.1.0
 _ZN11QMdnsEngine14AbstractServer15messageReceivedERKNS_7MessageE@Base 0.1.0
 _ZN11QMdnsEngine14AbstractServer16staticMetaObjectE@Base 0.1.0
 _ZN11QMdnsEngine14AbstractServer5errorERK7QString@Base 0.1.0
 _ZN11QMdnsEngine14AbstractServerC1EP7QObject@Base 0.1.0
 _ZN11QMdnsEngine14AbstractServerC2EP7QObject@Base 0.1.0
 _ZN11QMdnsEngine14BrowserPrivate11qt_metacallEN11QMetaObject4CallEiPPv@Base 0.1.0
 _ZN11QMdnsEngine14BrowserPrivate11qt_metacastEPKc@Base 0.1.0
 _ZN11QMdnsEngine14BrowserPrivate13onShouldQueryERKNS_6RecordE@Base 0.1.0
 _ZN11QMdnsEngine14BrowserPrivate13updateServiceERK10QByteArray@Base 0.1.0
 _ZN11QMdnsEngine14BrowserPrivate14onQueryTimeoutEv@Base 0.1.0
 _ZN11QMdnsEngine14BrowserPrivate15onRecordExpiredERKNS_6RecordE@Base 0.1.0
 _ZN11QMdnsEngine14BrowserPrivate16onServiceTimeoutEv@Base 0.1.0
 _ZN11QMdnsEngine14BrowserPrivate16staticMetaObjectE@Base 0.1.0
 _ZN11QMdnsEngine14BrowserPrivate17onMessageReceivedERKNS_7MessageE@Base 0.1.0
 _ZN11QMdnsEngine14BrowserPrivateC1EPNS_7BrowserEPNS_14AbstractServerERK10QByteArrayPNS_5CacheE@Base 0.1.0
 _ZN11QMdnsEngine14BrowserPrivateC2EPNS_7BrowserEPNS_14AbstractServerERK10QByteArrayPNS_5CacheE@Base 0.1.0
 _ZN11QMdnsEngine14BrowserPrivateD0Ev@Base 0.1.0
 _ZN11QMdnsEngine14BrowserPrivateD1Ev@Base 0.1.0
 _ZN11QMdnsEngine14BrowserPrivateD2Ev@Base 0.1.0
 _ZN11QMdnsEngine14MdnsBrowseTypeE@Base 0.1.0
 _ZN11QMdnsEngine14MessagePrivateC1Ev@Base 0.1.0
 _ZN11QMdnsEngine14MessagePrivateC2Ev@Base 0.1.0
 _ZN11QMdnsEngine14ServicePrivateC1Ev@Base 0.1.0
 _ZN11QMdnsEngine14ServicePrivateC2Ev@Base 0.1.0
 _ZN11QMdnsEngine15HostnamePrivate11qt_metacallEN11QMetaObject4CallEiPPv@Base 0.1.0
 _ZN11QMdnsEngine15HostnamePrivate11qt_metacastEPKc@Base 0.1.0
 _ZN11QMdnsEngine15HostnamePrivate13resetHostnameEv@Base 0.1.0
 _ZN11QMdnsEngine15HostnamePrivate14assertHostnameEv@Base 0.1.0
 _ZN11QMdnsEngine15HostnamePrivate14generateRecordERK12QHostAddresstRNS_6RecordE@Base 0.1.0
 _ZN11QMdnsEngine15HostnamePrivate16staticMetaObjectE@Base 0.1.0
 _ZN11QMdnsEngine15HostnamePrivate17onMessageReceivedERKNS_7MessageE@Base 0.1.0
 _ZN11QMdnsEngine15HostnamePrivate20onRebroadcastTimeoutEv@Base 0.1.0
 _ZN11QMdnsEngine15HostnamePrivate21onRegistrationTimeoutEv@Base 0.1.0
 _ZN11QMdnsEngine15HostnamePrivateC1EPNS_8HostnameEPNS_14AbstractServerE@Base 0.1.0
 _ZN11QMdnsEngine15HostnamePrivateC2EPNS_8HostnameEPNS_14AbstractServerE@Base 0.1.0
 _ZN11QMdnsEngine15HostnamePrivateD0Ev@Base 0.1.0
 _ZN11QMdnsEngine15HostnamePrivateD1Ev@Base 0.1.0
 _ZN11QMdnsEngine15HostnamePrivateD2Ev@Base 0.1.0
 _ZN11QMdnsEngine15MdnsIpv4AddressE@Base 0.1.0
 _ZN11QMdnsEngine15MdnsIpv6AddressE@Base 0.1.0
 _ZN11QMdnsEngine15ProviderPrivate11qt_metacallEN11QMetaObject4CallEiPPv@Base 0.1.0
 _ZN11QMdnsEngine15ProviderPrivate11qt_metacastEPKc@Base 0.1.0
 _ZN11QMdnsEngine15ProviderPrivate16staticMetaObjectE@Base 0.1.0
 _ZN11QMdnsEngine15ProviderPrivate17onHostnameChangedERK10QByteArray@Base 0.1.0
 _ZN11QMdnsEngine15ProviderPrivate17onMessageReceivedERKNS_7MessageE@Base 0.1.0
 _ZN11QMdnsEngine15ProviderPrivate7confirmEv@Base 0.1.0
 _ZN11QMdnsEngine15ProviderPrivate7publishEv@Base 0.1.0
 _ZN11QMdnsEngine15ProviderPrivate8announceEv@Base 0.1.0
 _ZN11QMdnsEngine15ProviderPrivate8farewellEv@Base 0.1.0
 _ZN11QMdnsEngine15ProviderPrivateC1EP7QObjectPNS_14AbstractServerEPNS_8HostnameE@Base 0.1.0
 _ZN11QMdnsEngine15ProviderPrivateC2EP7QObjectPNS_14AbstractServerEPNS_8HostnameE@Base 0.1.0
 _ZN11QMdnsEngine15ProviderPrivateD0Ev@Base 0.1.0
 _ZN11QMdnsEngine15ProviderPrivateD1Ev@Base 0.1.0
 _ZN11QMdnsEngine15ProviderPrivateD2Ev@Base 0.1.0
 _ZN11QMdnsEngine15ResolverPrivate11qt_metacallEN11QMetaObject4CallEiPPv@Base 0.1.0
 _ZN11QMdnsEngine15ResolverPrivate11qt_metacastEPKc@Base 0.1.0
 _ZN11QMdnsEngine15ResolverPrivate16staticMetaObjectE@Base 0.1.0
 _ZN11QMdnsEngine15ResolverPrivate17onMessageReceivedERKNS_7MessageE@Base 0.1.0
 _ZN11QMdnsEngine15ResolverPrivate9onTimeoutEv@Base 0.1.0
 _ZN11QMdnsEngine15ResolverPrivateC1EPNS_8ResolverEPNS_14AbstractServerERK10QByteArrayPNS_5CacheE@Base 0.1.0
 _ZN11QMdnsEngine15ResolverPrivateC2EPNS_8ResolverEPNS_14AbstractServerERK10QByteArrayPNS_5CacheE@Base 0.1.0
 _ZN11QMdnsEngine15ResolverPrivateD0Ev@Base 0.1.0
 _ZN11QMdnsEngine15ResolverPrivateD1Ev@Base 0.1.0
 _ZN11QMdnsEngine15ResolverPrivateD2Ev@Base 0.1.0
 _ZN11QMdnsEngine5Cache11qt_metacallEN11QMetaObject4CallEiPPv@Base 0.1.0
 _ZN11QMdnsEngine5Cache11qt_metacastEPKc@Base 0.1.0
 _ZN11QMdnsEngine5Cache11shouldQueryERKNS_6RecordE@Base 0.1.0
 _ZN11QMdnsEngine5Cache13recordExpiredERKNS_6RecordE@Base 0.1.0
 _ZN11QMdnsEngine5Cache16staticMetaObjectE@Base 0.1.0
 _ZN11QMdnsEngine5Cache9addRecordERKNS_6RecordE@Base 0.1.0
 _ZN11QMdnsEngine5CacheC1EP7QObject@Base 0.1.0
 _ZN11QMdnsEngine5CacheC2EP7QObject@Base 0.1.0
 _ZN11QMdnsEngine5CacheD0Ev@Base 0.1.0
 _ZN11QMdnsEngine5CacheD1Ev@Base 0.1.0
 _ZN11QMdnsEngine5CacheD2Ev@Base 0.1.0
 _ZN11QMdnsEngine5Query18setUnicastResponseEb@Base 0.1.0
 _ZN11QMdnsEngine5Query7setNameERK10QByteArray@Base 0.1.0
 _ZN11QMdnsEngine5Query7setTypeEt@Base 0.1.0
 _ZN11QMdnsEngine5QueryC1ERKS0_@Base 0.1.0
 _ZN11QMdnsEngine5QueryC1Ev@Base 0.1.0
 _ZN11QMdnsEngine5QueryC2ERKS0_@Base 0.1.0
 _ZN11QMdnsEngine5QueryC2Ev@Base 0.1.0
 _ZN11QMdnsEngine5QueryD0Ev@Base 0.1.0
 _ZN11QMdnsEngine5QueryD1Ev@Base 0.1.0
 _ZN11QMdnsEngine5QueryD2Ev@Base 0.1.0
 _ZN11QMdnsEngine5QueryaSERKS0_@Base 0.1.0
 _ZN11QMdnsEngine6Bitmap7setDataEhPKh@Base 0.1.0
 _ZN11QMdnsEngine6BitmapC1ERKS0_@Base 0.1.0
 _ZN11QMdnsEngine6BitmapC1Ev@Base 0.1.0
 _ZN11QMdnsEngine6BitmapC2ERKS0_@Base 0.1.0
 _ZN11QMdnsEngine6BitmapC2Ev@Base 0.1.0
 _ZN11QMdnsEngine6BitmapD0Ev@Base 0.1.0
 _ZN11QMdnsEngine6BitmapD1Ev@Base 0.1.0
 _ZN11QMdnsEngine6BitmapD2Ev@Base 0.1.0
 _ZN11QMdnsEngine6BitmapaSERKS0_@Base 0.1.0
 _ZN11QMdnsEngine6BitmapeqERKS0_@Base 0.1.0
 _ZN11QMdnsEngine6Prober11qt_metacallEN11QMetaObject4CallEiPPv@Base 0.1.0
 _ZN11QMdnsEngine6Prober11qt_metacastEPKc@Base 0.1.0
 _ZN11QMdnsEngine6Prober13nameConfirmedERK10QByteArray@Base 0.1.0
 _ZN11QMdnsEngine6Prober16staticMetaObjectE@Base 0.1.0
 _ZN11QMdnsEngine6ProberC1EPNS_14AbstractServerERKNS_6RecordEP7QObject@Base 0.1.0
 _ZN11QMdnsEngine6ProberC2EPNS_14AbstractServerERKNS_6RecordEP7QObject@Base 0.1.0
 _ZN11QMdnsEngine6ProberD0Ev@Base 0.1.0
 _ZN11QMdnsEngine6ProberD1Ev@Base 0.1.0
 _ZN11QMdnsEngine6ProberD2Ev@Base 0.1.0
 _ZN11QMdnsEngine6Record10setAddressERK12QHostAddress@Base 0.1.0
 _ZN11QMdnsEngine6Record11setPriorityEt@Base 0.1.0
 _ZN11QMdnsEngine6Record12addAttributeERK10QByteArrayS3_@Base 0.1.0
 _ZN11QMdnsEngine6Record13setAttributesERK4QMapI10QByteArrayS2_E@Base 0.1.0
 _ZN11QMdnsEngine6Record13setFlushCacheEb@Base 0.1.0
 _ZN11QMdnsEngine6Record17setNextDomainNameERK10QByteArray@Base 0.1.0
 _ZN11QMdnsEngine6Record6setTtlEj@Base 0.1.0
 _ZN11QMdnsEngine6Record7setNameERK10QByteArray@Base 0.1.0
 _ZN11QMdnsEngine6Record7setPortEt@Base 0.1.0
 _ZN11QMdnsEngine6Record7setTypeEt@Base 0.1.0
 _ZN11QMdnsEngine6Record9setBitmapERKNS_6BitmapE@Base 0.1.0
 _ZN11QMdnsEngine6Record9setTargetERK10QByteArray@Base 0.1.0
 _ZN11QMdnsEngine6Record9setWeightEt@Base 0.1.0
 _ZN11QMdnsEngine6RecordC1ERKS0_@Base 0.1.0
 _ZN11QMdnsEngine6RecordC1Ev@Base 0.1.0
 _ZN11QMdnsEngine6RecordC2ERKS0_@Base 0.1.0
 _ZN11QMdnsEngine6RecordC2Ev@Base 0.1.0
 _ZN11QMdnsEngine6RecordD0Ev@Base 0.1.0
 _ZN11QMdnsEngine6RecordD1Ev@Base 0.1.0
 _ZN11QMdnsEngine6RecordD2Ev@Base 0.1.0
 _ZN11QMdnsEngine6RecordaSERKS0_@Base 0.1.0
 _ZN11QMdnsEngine6Server11qt_metacallEN11QMetaObject4CallEiPPv@Base 0.1.0
 _ZN11QMdnsEngine6Server11qt_metacastEPKc@Base 0.1.0
 _ZN11QMdnsEngine6Server11sendMessageERKNS_7MessageE@Base 0.1.0
 _ZN11QMdnsEngine6Server16sendMessageToAllERKNS_7MessageE@Base 0.1.0
 _ZN11QMdnsEngine6Server16staticMetaObjectE@Base 0.1.0
 _ZN11QMdnsEngine6ServerC1EP7QObject@Base 0.1.0
 _ZN11QMdnsEngine6ServerC2EP7QObject@Base 0.1.0
 _ZN11QMdnsEngine6ServerD0Ev@Base 0.1.0
 _ZN11QMdnsEngine6ServerD1Ev@Base 0.1.0
 _ZN11QMdnsEngine6ServerD2Ev@Base 0.1.0
 _ZN11QMdnsEngine7Browser11qt_metacallEN11QMetaObject4CallEiPPv@Base 0.1.0
 _ZN11QMdnsEngine7Browser11qt_metacastEPKc@Base 0.1.0
 _ZN11QMdnsEngine7Browser12serviceAddedERKNS_7ServiceE@Base 0.1.0
 _ZN11QMdnsEngine7Browser14serviceRemovedERKNS_7ServiceE@Base 0.1.0
 _ZN11QMdnsEngine7Browser14serviceUpdatedERKNS_7ServiceE@Base 0.1.0
 _ZN11QMdnsEngine7Browser16staticMetaObjectE@Base 0.1.0
 _ZN11QMdnsEngine7BrowserC1EPNS_14AbstractServerERK10QByteArrayPNS_5CacheEP7QObject@Base 0.1.0
 _ZN11QMdnsEngine7BrowserC2EPNS_14AbstractServerERK10QByteArrayPNS_5CacheEP7QObject@Base 0.1.0
 _ZN11QMdnsEngine7BrowserD0Ev@Base 0.1.0
 _ZN11QMdnsEngine7BrowserD1Ev@Base 0.1.0
 _ZN11QMdnsEngine7BrowserD2Ev@Base 0.1.0
 _ZN11QMdnsEngine7Message10setAddressERK12QHostAddress@Base 0.1.0
 _ZN11QMdnsEngine7Message11setResponseEb@Base 0.1.0
 _ZN11QMdnsEngine7Message16setTransactionIdEt@Base 0.1.0
 _ZN11QMdnsEngine7Message5replyERKS0_@Base 0.1.0
 _ZN11QMdnsEngine7Message7setPortEt@Base 0.1.0
 _ZN11QMdnsEngine7Message8addQueryERKNS_5QueryE@Base 0.1.0
 _ZN11QMdnsEngine7Message9addRecordERKNS_6RecordE@Base 0.1.0
 _ZN11QMdnsEngine7MessageC1ERKS0_@Base 0.1.0
 _ZN11QMdnsEngine7MessageC1Ev@Base 0.1.0
 _ZN11QMdnsEngine7MessageC2ERKS0_@Base 0.1.0
 _ZN11QMdnsEngine7MessageC2Ev@Base 0.1.0
 _ZN11QMdnsEngine7MessageD0Ev@Base 0.1.0
 _ZN11QMdnsEngine7MessageD1Ev@Base 0.1.0
 _ZN11QMdnsEngine7MessageD2Ev@Base 0.1.0
 _ZN11QMdnsEngine7MessageaSERKS0_@Base 0.1.0
 _ZN11QMdnsEngine7Service11setHostnameERK10QByteArray@Base 0.1.0
 _ZN11QMdnsEngine7Service12addAttributeERK10QByteArrayS3_@Base 0.1.0
 _ZN11QMdnsEngine7Service13setAttributesERK4QMapI10QByteArrayS2_E@Base 0.1.0
 _ZN11QMdnsEngine7Service7setNameERK10QByteArray@Base 0.1.0
 _ZN11QMdnsEngine7Service7setPortEt@Base 0.1.0
 _ZN11QMdnsEngine7Service7setTypeERK10QByteArray@Base 0.1.0
 _ZN11QMdnsEngine7ServiceC1ERKS0_@Base 0.1.0
 _ZN11QMdnsEngine7ServiceC1Ev@Base 0.1.0
 _ZN11QMdnsEngine7ServiceC2ERKS0_@Base 0.1.0
 _ZN11QMdnsEngine7ServiceC2Ev@Base 0.1.0
 _ZN11QMdnsEngine7ServiceD0Ev@Base 0.1.0
 _ZN11QMdnsEngine7ServiceD1Ev@Base 0.1.0
 _ZN11QMdnsEngine7ServiceD2Ev@Base 0.1.0
 _ZN11QMdnsEngine7ServiceaSERKS0_@Base 0.1.0
 _ZN11QMdnsEngine8Hostname11qt_metacallEN11QMetaObject4CallEiPPv@Base 0.1.0
 _ZN11QMdnsEngine8Hostname11qt_metacastEPKc@Base 0.1.0
 _ZN11QMdnsEngine8Hostname15hostnameChangedERK10QByteArray@Base 0.1.0
 _ZN11QMdnsEngine8Hostname16staticMetaObjectE@Base 0.1.0
 _ZN11QMdnsEngine8HostnameC1EPNS_14AbstractServerEP7QObject@Base 0.1.0
 _ZN11QMdnsEngine8HostnameC2EPNS_14AbstractServerEP7QObject@Base 0.1.0
 _ZN11QMdnsEngine8HostnameD0Ev@Base 0.1.0
 _ZN11QMdnsEngine8HostnameD1Ev@Base 0.1.0
 _ZN11QMdnsEngine8HostnameD2Ev@Base 0.1.0
 _ZN11QMdnsEngine8MdnsPortE@Base 0.1.0
 _ZN11QMdnsEngine8Provider11qt_metacallEN11QMetaObject4CallEiPPv@Base 0.1.0
 _ZN11QMdnsEngine8Provider11qt_metacastEPKc@Base 0.1.0
 _ZN11QMdnsEngine8Provider16staticMetaObjectE@Base 0.1.0
 _ZN11QMdnsEngine8Provider6updateERKNS_7ServiceE@Base 0.1.0
 _ZN11QMdnsEngine8ProviderC1EPNS_14AbstractServerEPNS_8HostnameEP7QObject@Base 0.1.0
 _ZN11QMdnsEngine8ProviderC2EPNS_14AbstractServerEPNS_8HostnameEP7QObject@Base 0.1.0
 _ZN11QMdnsEngine8ProviderD0Ev@Base 0.1.0
 _ZN11QMdnsEngine8ProviderD1Ev@Base 0.1.0
 _ZN11QMdnsEngine8ProviderD2Ev@Base 0.1.0
 _ZN11QMdnsEngine8Resolver11qt_metacallEN11QMetaObject4CallEiPPv@Base 0.1.0
 _ZN11QMdnsEngine8Resolver11qt_metacastEPKc@Base 0.1.0
 _ZN11QMdnsEngine8Resolver16staticMetaObjectE@Base 0.1.0
 _ZN11QMdnsEngine8Resolver8resolvedERK12QHostAddress@Base 0.1.0
 _ZN11QMdnsEngine8ResolverC1EPNS_14AbstractServerERK10QByteArrayPNS_5CacheEP7QObject@Base 0.1.0
 _ZN11QMdnsEngine8ResolverC2EPNS_14AbstractServerERK10QByteArrayPNS_5CacheEP7QObject@Base 0.1.0
 _ZN11QMdnsEngine8ResolverD0Ev@Base 0.1.0
 _ZN11QMdnsEngine8ResolverD1Ev@Base 0.1.0
 _ZN11QMdnsEngine8ResolverD2Ev@Base 0.1.0
 _ZN11QMdnsEngine8toPacketERKNS_7MessageER10QByteArray@Base 0.1.0
 _ZN11QMdnsEngine8typeNameEt@Base 0.1.0
 _ZN11QMdnsEngine9parseNameERK10QByteArrayRtRS0_@Base 0.1.0
 _ZN11QMdnsEngine9writeNameER10QByteArrayRtRKS0_R4QMapIS0_tE@Base 0.1.0
 _ZN11QMdnsEnginelsE6QDebugRKNS_5QueryE@Base 0.1.0
 _ZN11QMdnsEnginelsE6QDebugRKNS_6RecordE@Base 0.1.0
 _ZN4QMapI10QByteArrayN11QMdnsEngine7ServiceEE13detach_helperEv@Base 0.1.0
 _ZN4QMapI10QByteArrayN11QMdnsEngine7ServiceEED1Ev@Base 0.1.0
 _ZN4QMapI10QByteArrayN11QMdnsEngine7ServiceEED2Ev@Base 0.1.0
 _ZN4QMapI10QByteArrayS0_EC1ERKS1_@Base 0.1.0
 _ZN4QMapI10QByteArrayS0_EC2ERKS1_@Base 0.1.0
 _ZN4QMapI10QByteArrayS0_ED1Ev@Base 0.1.0
 _ZN4QMapI10QByteArrayS0_ED2Ev@Base 0.1.0
 _ZN5QHashI10QByteArray15QHashDummyValueE11deleteNode2EPN9QHashData4NodeE@Base 0.1.0
 _ZN5QHashI10QByteArray15QHashDummyValueE13detach_helperEv@Base 0.1.0
 _ZN5QHashI10QByteArray15QHashDummyValueE13duplicateNodeEPN9QHashData4NodeEPv@Base 0.1.0
 _ZN5QHashI10QByteArray15QHashDummyValueED1Ev@Base 0.1.0
 _ZN5QHashI10QByteArray15QHashDummyValueED2Ev@Base 0.1.0
 _ZN5QHashI12QHostAddress15QHashDummyValueE11deleteNode2EPN9QHashData4NodeE@Base 0.1.0
 _ZN5QHashI12QHostAddress15QHashDummyValueE13duplicateNodeEPN9QHashData4NodeEPv@Base 0.1.0
 _ZN5QListI12QHostAddressED1Ev@Base 0.1.0
 _ZN5QListI12QHostAddressED2Ev@Base 0.1.0
 _ZN5QListI17QNetworkInterfaceED1Ev@Base 0.1.0
 _ZN5QListI17QNetworkInterfaceED2Ev@Base 0.1.0
 _ZN5QListI20QNetworkAddressEntryED1Ev@Base 0.1.0
 _ZN5QListI20QNetworkAddressEntryED2Ev@Base 0.1.0
 _ZN5QListI9QDateTimeE13detach_helperEi@Base 0.1.0
 _ZN5QListI9QDateTimeE18detach_helper_growEii@Base 0.1.0
 _ZN5QListI9QDateTimeE6appendERKS0_@Base 0.1.0
 _ZN5QListI9QDateTimeEC1ERKS1_@Base 0.1.0
 _ZN5QListI9QDateTimeEC2ERKS1_@Base 0.1.0
 _ZN5QListI9QDateTimeED1Ev@Base 0.1.0
 _ZN5QListI9QDateTimeED2Ev@Base 0.1.0
 _ZN5QListIN11QMdnsEngine12CachePrivate5EntryEE13detach_helperEi@Base 0.1.0
 _ZN5QListIN11QMdnsEngine12CachePrivate5EntryEE18detach_helper_growEii@Base 0.1.0
 _ZN5QListIN11QMdnsEngine12CachePrivate5EntryEE6appendERKS2_@Base 0.1.0
 _ZN5QListIN11QMdnsEngine12CachePrivate5EntryEEC1ERKS3_@Base 0.1.0
 _ZN5QListIN11QMdnsEngine12CachePrivate5EntryEEC2ERKS3_@Base 0.1.0
 _ZN5QListIN11QMdnsEngine12CachePrivate5EntryEED1Ev@Base 0.1.0
 _ZN5QListIN11QMdnsEngine12CachePrivate5EntryEED2Ev@Base 0.1.0
 _ZN5QListIN11QMdnsEngine5QueryEE18detach_helper_growEii@Base 0.1.0
 _ZN5QListIN11QMdnsEngine5QueryEE6appendERKS1_@Base 0.1.0
 _ZN5QListIN11QMdnsEngine5QueryEEC1ERKS2_@Base 0.1.0
 _ZN5QListIN11QMdnsEngine5QueryEEC2ERKS2_@Base 0.1.0
 _ZN5QListIN11QMdnsEngine5QueryEED1Ev@Base 0.1.0
 _ZN5QListIN11QMdnsEngine5QueryEED2Ev@Base 0.1.0
 _ZN5QListIN11QMdnsEngine6RecordEE18detach_helper_growEii@Base 0.1.0
 _ZN5QListIN11QMdnsEngine6RecordEE6appendERKS1_@Base 0.1.0
 _ZN5QListIN11QMdnsEngine6RecordEEC1ERKS2_@Base 0.1.0
 _ZN5QListIN11QMdnsEngine6RecordEEC2ERKS2_@Base 0.1.0
 _ZN5QListIN11QMdnsEngine6RecordEED1Ev@Base 0.1.0
 _ZN5QListIN11QMdnsEngine6RecordEED2Ev@Base 0.1.0
 _ZN7QStringD1Ev@Base 0.1.0
 _ZN7QStringD2Ev@Base 0.1.0
 _ZN8QMapDataI10QByteArraytE7destroyEv@Base 0.1.0
 _ZN8QMapNodeI10QByteArrayN11QMdnsEngine7ServiceEE14destroySubTreeEv@Base 0.1.0
 _ZN8QMapNodeI10QByteArrayS0_E14destroySubTreeEv@Base 0.1.0
 _ZN8QMapNodeI10QByteArraytE14destroySubTreeEv@Base 0.1.0
 _ZN9QtPrivate11QSlotObjectIMN11QMdnsEngine12CachePrivateEFvvENS_4ListIJEEEvE4implEiPNS_15QSlotObjectBaseEP7QObjectPPvPb@Base 0.1.0
 _ZN9QtPrivate11QSlotObjectIMN11QMdnsEngine13ProberPrivateEFvRKNS1_7MessageEENS_4ListIJS5_EEEvE4implEiPNS_15QSlotObjectBaseEP7QObjectPPvPb@Base 0.1.0
 _ZN9QtPrivate11QSlotObjectIMN11QMdnsEngine13ProberPrivateEFvvENS_4ListIJEEEvE4implEiPNS_15QSlotObjectBaseEP7QObjectPPvPb@Base 0.1.0
 _ZN9QtPrivate11QSlotObjectIMN11QMdnsEngine13ServerPrivateEFvvENS_4ListIJEEEvE4implEiPNS_15QSlotObjectBaseEP7QObjectPPvPb@Base 0.1.0
 _ZN9QtPrivate11QSlotObjectIMN11QMdnsEngine14BrowserPrivateEFvRKNS1_6RecordEENS_4ListIJS5_EEEvE4implEiPNS_15QSlotObjectBaseEP7QObjectPPvPb@Base 0.1.0
 _ZN9QtPrivate11QSlotObjectIMN11QMdnsEngine14BrowserPrivateEFvRKNS1_7MessageEENS_4ListIJS5_EEEvE4implEiPNS_15QSlotObjectBaseEP7QObjectPPvPb@Base 0.1.0
 _ZN9QtPrivate11QSlotObjectIMN11QMdnsEngine14BrowserPrivateEFvvENS_4ListIJEEEvE4implEiPNS_15QSlotObjectBaseEP7QObjectPPvPb@Base 0.1.0
 _ZN9QtPrivate11QSlotObjectIMN11QMdnsEngine15HostnamePrivateEFvRKNS1_7MessageEENS_4ListIJS5_EEEvE4implEiPNS_15QSlotObjectBaseEP7QObjectPPvPb@Base 0.1.0
 _ZN9QtPrivate11QSlotObjectIMN11QMdnsEngine15HostnamePrivateEFvvENS_4ListIJEEEvE4implEiPNS_15QSlotObjectBaseEP7QObjectPPvPb@Base 0.1.0
 _ZN9QtPrivate11QSlotObjectIMN11QMdnsEngine15ProviderPrivateEFvRK10QByteArrayENS_4ListIJS5_EEEvE4implEiPNS_15QSlotObjectBaseEP7QObjectPPvPb@Base 0.1.0
 _ZN9QtPrivate11QSlotObjectIMN11QMdnsEngine15ProviderPrivateEFvRKNS1_7MessageEENS_4ListIJS5_EEEvE4implEiPNS_15QSlotObjectBaseEP7QObjectPPvPb@Base 0.1.0
 _ZN9QtPrivate11QSlotObjectIMN11QMdnsEngine15ResolverPrivateEFvRKNS1_7MessageEENS_4ListIJS5_EEEvE4implEiPNS_15QSlotObjectBaseEP7QObjectPPvPb@Base 0.1.0
 _ZN9QtPrivate11QSlotObjectIMN11QMdnsEngine15ResolverPrivateEFvvENS_4ListIJEEEvE4implEiPNS_15QSlotObjectBaseEP7QObjectPPvPb@Base 0.1.0
 _ZNK11QMdnsEngine12CachePrivate10metaObjectEv@Base 0.1.0
 _ZNK11QMdnsEngine13ProberPrivate10metaObjectEv@Base 0.1.0
 _ZNK11QMdnsEngine13ServerPrivate10metaObjectEv@Base 0.1.0
 _ZNK11QMdnsEngine14AbstractServer10metaObjectEv@Base 0.1.0
 _ZNK11QMdnsEngine14BrowserPrivate10metaObjectEv@Base 0.1.0
 _ZNK11QMdnsEngine15HostnamePrivate10metaObjectEv@Base 0.1.0
 _ZNK11QMdnsEngine15ProviderPrivate10metaObjectEv@Base 0.1.0
 _ZNK11QMdnsEngine15ResolverPrivate10metaObjectEv@Base 0.1.0
 _ZNK11QMdnsEngine15ResolverPrivate5queryEv@Base 0.1.0
 _ZNK11QMdnsEngine15ResolverPrivate8existingEv@Base 0.1.0
 _ZNK11QMdnsEngine5Cache10metaObjectEv@Base 0.1.0
 _ZNK11QMdnsEngine5Cache12lookupRecordERK10QByteArraytRNS_6RecordE@Base 0.1.0
 _ZNK11QMdnsEngine5Cache13lookupRecordsERK10QByteArraytR5QListINS_6RecordEE@Base 0.1.0
 _ZNK11QMdnsEngine5Query15unicastResponseEv@Base 0.1.0
 _ZNK11QMdnsEngine5Query4nameEv@Base 0.1.0
 _ZNK11QMdnsEngine5Query4typeEv@Base 0.1.0
 _ZNK11QMdnsEngine6Bitmap4dataEv@Base 0.1.0
 _ZNK11QMdnsEngine6Bitmap6lengthEv@Base 0.1.0
 _ZNK11QMdnsEngine6Prober10metaObjectEv@Base 0.1.0
 _ZNK11QMdnsEngine6Record10attributesEv@Base 0.1.0
 _ZNK11QMdnsEngine6Record10flushCacheEv@Base 0.1.0
 _ZNK11QMdnsEngine6Record14nextDomainNameEv@Base 0.1.0
 _ZNK11QMdnsEngine6Record3ttlEv@Base 0.1.0
 _ZNK11QMdnsEngine6Record4nameEv@Base 0.1.0
 _ZNK11QMdnsEngine6Record4portEv@Base 0.1.0
 _ZNK11QMdnsEngine6Record4typeEv@Base 0.1.0
 _ZNK11QMdnsEngine6Record6bitmapEv@Base 0.1.0
 _ZNK11QMdnsEngine6Record6targetEv@Base 0.1.0
 _ZNK11QMdnsEngine6Record6weightEv@Base 0.1.0
 _ZNK11QMdnsEngine6Record7addressEv@Base 0.1.0
 _ZNK11QMdnsEngine6Record8priorityEv@Base 0.1.0
 _ZNK11QMdnsEngine6RecordeqERKS0_@Base 0.1.0
 _ZNK11QMdnsEngine6RecordneERKS0_@Base 0.1.0
 _ZNK11QMdnsEngine6Server10metaObjectEv@Base 0.1.0
 _ZNK11QMdnsEngine7Browser10metaObjectEv@Base 0.1.0
 _ZNK11QMdnsEngine7Message10isResponseEv@Base 0.1.0
 _ZNK11QMdnsEngine7Message13transactionIdEv@Base 0.1.0
 _ZNK11QMdnsEngine7Message4portEv@Base 0.1.0
 _ZNK11QMdnsEngine7Message7addressEv@Base 0.1.0
 _ZNK11QMdnsEngine7Message7queriesEv@Base 0.1.0
 _ZNK11QMdnsEngine7Message7recordsEv@Base 0.1.0
 _ZNK11QMdnsEngine7Service10attributesEv@Base 0.1.0
 _ZNK11QMdnsEngine7Service4nameEv@Base 0.1.0
 _ZNK11QMdnsEngine7Service4portEv@Base 0.1.0
 _ZNK11QMdnsEngine7Service4typeEv@Base 0.1.0
 _ZNK11QMdnsEngine7Service8hostnameEv@Base 0.1.0
 _ZNK11QMdnsEngine7ServiceeqERKS0_@Base 0.1.0
 _ZNK11QMdnsEngine7ServiceneERKS0_@Base 0.1.0
 _ZNK11QMdnsEngine8Hostname10metaObjectEv@Base 0.1.0
 _ZNK11QMdnsEngine8Hostname12isRegisteredEv@Base 0.1.0
 _ZNK11QMdnsEngine8Hostname8hostnameEv@Base 0.1.0
 _ZNK11QMdnsEngine8Provider10metaObjectEv@Base 0.1.0
 _ZNK11QMdnsEngine8Resolver10metaObjectEv@Base 0.1.0
 _ZNK4QMapI10QByteArrayS0_EeqERKS1_@Base 0.1.0
 _ZNK5QHashI10QByteArray15QHashDummyValueE8findNodeERKS0_j@Base 0.1.0
 _ZNK5QHashI12QHostAddress15QHashDummyValueE8findNodeERKS0_j@Base 0.1.0
 _ZNK8QMapDataI10QByteArrayN11QMdnsEngine7ServiceEE8findNodeERKS0_@Base 0.1.0
 _ZNK8QMapDataI10QByteArraytE8findNodeERKS0_@Base 0.1.0
 _ZNK8QMapNodeI10QByteArrayN11QMdnsEngine7ServiceEE4copyEP8QMapDataIS0_S2_E@Base 0.1.0
 _ZNK8QMapNodeI10QByteArrayS0_E4copyEP8QMapDataIS0_S0_E@Base 0.1.0
 _ZNK8QMapNodeI10QByteArraytE4copyEP8QMapDataIS0_tE@Base 0.1.0
 _ZTIN11QMdnsEngine12CachePrivateE@Base 0.1.0
 _ZTIN11QMdnsEngine13BitmapPrivateE@Base 0.1.0
 _ZTIN11QMdnsEngine13ProberPrivateE@Base 0.1.0
 _ZTIN11QMdnsEngine13ServerPrivateE@Base 0.1.0
 _ZTIN11QMdnsEngine14AbstractServerE@Base 0.1.0
 _ZTIN11QMdnsEngine14BrowserPrivateE@Base 0.1.0
 _ZTIN11QMdnsEngine15HostnamePrivateE@Base 0.1.0
 _ZTIN11QMdnsEngine15ProviderPrivateE@Base 0.1.0
 _ZTIN11QMdnsEngine15ResolverPrivateE@Base 0.1.0
 _ZTIN11QMdnsEngine5CacheE@Base 0.1.0
 _ZTIN11QMdnsEngine5QueryE@Base 0.1.0
 _ZTIN11QMdnsEngine6BitmapE@Base 0.1.0
 _ZTIN11QMdnsEngine6ProberE@Base 0.1.0
 _ZTIN11QMdnsEngine6RecordE@Base 0.1.0
 _ZTIN11QMdnsEngine6ServerE@Base 0.1.0
 _ZTIN11QMdnsEngine7BrowserE@Base 0.1.0
 _ZTIN11QMdnsEngine7MessageE@Base 0.1.0
 _ZTIN11QMdnsEngine7ServiceE@Base 0.1.0
 _ZTIN11QMdnsEngine8HostnameE@Base 0.1.0
 _ZTIN11QMdnsEngine8ProviderE@Base 0.1.0
 _ZTIN11QMdnsEngine8ResolverE@Base 0.1.0
 _ZTSN11QMdnsEngine12CachePrivateE@Base 0.1.0
 _ZTSN11QMdnsEngine13BitmapPrivateE@Base 0.1.0
 _ZTSN11QMdnsEngine13ProberPrivateE@Base 0.1.0
 _ZTSN11QMdnsEngine13ServerPrivateE@Base 0.1.0
 _ZTSN11QMdnsEngine14AbstractServerE@Base 0.1.0
 _ZTSN11QMdnsEngine14BrowserPrivateE@Base 0.1.0
 _ZTSN11QMdnsEngine15HostnamePrivateE@Base 0.1.0
 _ZTSN11QMdnsEngine15ProviderPrivateE@Base 0.1.0
 _ZTSN11QMdnsEngine15ResolverPrivateE@Base 0.1.0
 _ZTSN11QMdnsEngine5CacheE@Base 0.1.0
 _ZTSN11QMdnsEngine5QueryE@Base 0.1.0
 _ZTSN11QMdnsEngine6BitmapE@Base 0.1.0
 _ZTSN11QMdnsEngine6ProberE@Base 0.1.0
 _ZTSN11QMdnsEngine6RecordE@Base 0.1.0
 _ZTSN11QMdnsEngine6ServerE@Base 0.1.0
 _ZTSN11QMdnsEngine7BrowserE@Base 0.1.0
 _ZTSN11QMdnsEngine7MessageE@Base 0.1.0
 _ZTSN11QMdnsEngine7ServiceE@Base 0.1.0
 _ZTSN11QMdnsEngine8HostnameE@Base 0.1.0
 _ZTSN11QMdnsEngine8ProviderE@Base 0.1.0
 _ZTSN11QMdnsEngine8ResolverE@Base 0.1.0
 _ZTVN11QMdnsEngine12CachePrivateE@Base 0.1.0
 _ZTVN11QMdnsEngine13BitmapPrivateE@Base 0.1.0
 _ZTVN11QMdnsEngine13ProberPrivateE@Base 0.1.0
 _ZTVN11QMdnsEngine13ServerPrivateE@Base 0.1.0
 _ZTVN11QMdnsEngine14AbstractServerE@Base 0.1.0
 _ZTVN11QMdnsEngine14BrowserPrivateE@Base 0.1.0
 _ZTVN11QMdnsEngine15HostnamePrivateE@Base 0.1.0
 _ZTVN11QMdnsEngine15ProviderPrivateE@Base 0.1.0
 _ZTVN11QMdnsEngine15ResolverPrivateE@Base 0.1.0
 _ZTVN11QMdnsEngine5CacheE@Base 0.1.0
 _ZTVN11QMdnsEngine5QueryE@Base 0.1.0
 _ZTVN11QMdnsEngine6BitmapE@Base 0.1.0
 _ZTVN11QMdnsEngine6ProberE@Base 0.1.0
 _ZTVN11QMdnsEngine6RecordE@Base 0.1.0
 _ZTVN11QMdnsEngine6ServerE@Base 0.1.0
 _ZTVN11QMdnsEngine7BrowserE@Base 0.1.0
 _ZTVN11QMdnsEngine7MessageE@Base 0.1.0
 _ZTVN11QMdnsEngine7ServiceE@Base 0.1.0
 _ZTVN11QMdnsEngine8HostnameE@Base 0.1.0
 _ZTVN11QMdnsEngine8ProviderE@Base 0.1.0
 _ZTVN11QMdnsEngine8ResolverE@Base 0.1.0
